target datalayout = "e-m:e-p270:32:32-p271:32:32-p272:64:64-i64:64-i128:128-f80:128-n8:16:32:64-S128"
target triple = "x86_64-pc-linux-gnu"

%struct._per_sequence_t = type { ptr, i32, i32, ptr }
%struct._h245_packet_info = type { i32, [50 x i8], [50 x i8] }

@h245_pi = hidden global ptr null, align 8
@ett_h245_CloseLogicalChannelAck = internal global i32 0, align 4
@CloseLogicalChannelAck_sequence = internal constant [2 x %struct._per_sequence_t] [%struct._per_sequence_t { ptr @hf_h245_forwardLogicalChannelNumber, i32 1, i32 0, ptr @dissect_h245_LogicalChannelNumber }, %struct._per_sequence_t zeroinitializer], align 16

; Function Attrs: null_pointer_is_valid sspstrong uwtable
define internal i32 @dissect_h245_CloseLogicalChannelAck(ptr noundef %0, i32 noundef %1, ptr noundef %2, ptr noundef %3, i32 noundef %4) #1 {
  %6 = alloca ptr, align 8
  %7 = alloca i32, align 4
  %8 = alloca ptr, align 8
  %9 = alloca ptr, align 8
  %10 = alloca i32, align 4
  store ptr %0, ptr %6, align 8
  store i32 %1, ptr %7, align 4
  store ptr %2, ptr %8, align 8
  store ptr %3, ptr %9, align 8
  store i32 %4, ptr %10, align 4
  %11 = load ptr, ptr %6, align 8
  %12 = load i32, ptr %7, align 4
  %13 = load ptr, ptr %8, align 8
  %14 = load ptr, ptr %9, align 8
  %15 = load i32, ptr %10, align 4
  %16 = load i32, ptr @ett_h245_CloseLogicalChannelAck, align 4
  %17 = call i32 @dissect_per_sequence(ptr noundef %11, i32 noundef %12, ptr noundef %13, ptr noundef %14, i32 noundef %15, i32 noundef %16, ptr noundef @CloseLogicalChannelAck_sequence)
  store i32 %17, ptr %7, align 4
  %18 = load ptr, ptr @h245_pi, align 8
  %19 = icmp ne ptr %18, null
  br i1 %19, label %20, label %23

20:                                               ; preds = %5
  %21 = load ptr, ptr @h245_pi, align 8
  %22 = getelementptr inbounds nuw %struct._h245_packet_info, ptr %21, i32 0, i32 0
  store i32 9, ptr %22, align 4
  br label %23

23:                                               ; preds = %20, %5
  %24 = load i32, ptr %7, align 4
  ret i32 %24
}